(dp0
S'.,v'
p1
(dp2
S'-'
p3
I1
sS'#'
p4
I34
sS'B'
p5
I4
sS'b'
p6
I6
sS'.'
p7
I343
ssS'v,b'
p8
(dp9
g4
I32
sg5
I15
sg6
I257
sg7
I78
ssS'#,B'
p10
(dp11
g5
I91
sg6
I28
sg3
I2
sg4
I7
sg7
I55
ssS'B,-'
p12
(dp13
g4
I1
sg5
I24
sg6
I10
sg7
I9
ssS'B,.'
p14
(dp15
g3
I6
sg4
I4
sg5
I536
sg6
I194
sg7
I178
ssS'B,#'
p16
(dp17
g3
I1
sg4
I155
sg5
I6
sg6
I4
sg7
I12
ssS'v,v'
p18
(dp19
g4
I7
sg6
I53
sg5
I2
sg7
I6
ssS'-,#'
p20
(dp21
g4
I78
sg3
I34
sg7
I15
ssS'v,B'
p22
(dp23
g4
I5
sg5
I11
sg6
I10
sg7
I5
ssS'-,.'
p24
(dp25
g4
I16
sg6
I12
sg3
I904
sg7
I117
ssS'#,b'
p26
(dp27
g5
I26
sg6
I696
sg3
I1
sg4
I45
sg7
I370
ssS'-,-'
p28
(dp29
g4
I4
sg6
I1
sg3
I15
sg7
I78
ssS'b,-'
p30
(dp31
g5
I11
sg6
I147
sg4
I3
sg7
I19
ssS'b,.'
p32
(dp33
g3
I17
sg4
I33
sg5
I186
sg6
I3335
sg7
I970
ssS'#,v'
p34
(dp35
g5
I2
sg6
I15
sg4
I33
sg7
I33
ssS'B,b'
p36
(dp37
g4
I9
sg5
I71
sg6
I118
sg7
I36
ssS'b,#'
p38
(dp39
g4
I1049
sg6
I90
sg3
I2
sg5
I2
sg7
I32
ssS'-,B'
p40
(dp41
g6
I1
sg5
I4
sg3
I34
sg4
I2
sg7
I5
ssS'v,-'
p42
(dp43
g4
I1
sg6
I1
sg7
I8
ssS'v,.'
p44
(dp45
g4
I8
sg6
I67
sg3
I7
sg5
I6
sg7
I431
ssS'v,#'
p46
(dp47
g4
I435
sg5
I1
sg3
I4
sg6
I3
sg7
I43
ssS'B,v'
p48
(dp49
g5
I111
sg6
I45
sg4
I2
sg7
I2
ssS'.,#'
p50
(dp51
g4
I1669
sg6
I9
sg3
I7
sg5
I2
sg7
I575
ssS'.,B'
p52
(dp53
g4
I42
sg5
I171
sg3
I1
sg6
I44
sg7
I745
ssS'.,-'
p54
(dp55
g4
I15
sg6
I6
sg3
I31
sg5
I3
sg7
I904
ssS'.,.'
p56
(dp57
g4
I128
sg6
I380
sg3
I226
sg5
I34
sg7
I16977
ssS'-,b'
p58
(dp59
g4
I1
sg6
I17
sg3
I45
sg5
I1
sg7
I38
ssS'#,-'
p60
(dp61
g5
I2
sg6
I14
sg4
I2
sg7
I57
ssS'#,.'
p62
(dp63
g5
I48
sg6
I319
sg3
I91
sg4
I170
sg7
I1671
ssS'b,v'
p64
(dp65
g5
I46
sg6
I1405
sg4
I14
sg7
I11
ssS'#,#'
p66
(dp67
g4
I343
sg6
I29
sg3
I3
sg5
I2
sg7
I121
ssS'.,b'
p68
(dp69
g4
I282
sg6
I913
sg3
I6
sg5
I72
sg7
I4587
ssS'-,v'
p70
(dp71
g4
I1
ssS'b,B'
p72
(dp73
g5
I101
sg6
I131
sg4
I5
sg7
I18
ssS'B,B'
p74
(dp75
g3
I1
sg4
I7
sg5
I120
sg6
I54
sg7
I22
ssS'b,b'
p76
(dp77
g4
I99
sg6
I2644
sg3
I4
sg5
I75
sg7
I273
ss.