(dp0
S'-,-,u,u,u'
p1
(dp2
S'#'
p3
I1
ssS'-,.,v,lr,lr'
p4
(dp5
S'-'
p6
I1
ssS'.,.,,,'
p7
(dp8
g3
I80
sS'b'
p9
I345
sg6
I128
sS'B'
p10
I33
sS'.'
p11
I13618
ssS'b,v,l,l,l'
p12
(dp13
g9
I4
ssS'b,#,l,l,l'
p14
(dp15
g3
I1
ssS'-,#,ucl,ucl,ucl'
p16
(dp17
g3
I1
ssS'#,b,uc,uc,uc'
p18
(dp19
g9
I7
ssS'-,.,f,v,f'
p20
(dp21
g6
I1
sg11
I1
ssS'.,b,l,l,l'
p22
(dp23
g3
I14
sg9
I19
sg6
I2
sg11
I1055
ssS'.,-,,v,'
p24
(dp25
g9
I1
sg6
I1
sg11
I109
ssS'.,b,v,l,l'
p26
(dp27
g11
I18
ssS'-,-,l,l,l'
p28
(dp29
g6
I4
ssS'.,v,,,'
p30
(dp31
g3
I4
sg10
I3
sg9
I4
sg11
I137
ssS'b,.,flr,flr,flr'
p32
(dp33
g9
I3
ssS'B,b,v,v,'
p34
(dp35
g9
I1
ssS'.,#,uc,uc,uc'
p36
(dp37
g3
I47
ssS'.,b,v,v,'
p38
(dp39
g9
I3
sg11
I1
ssS'.,v,ulr,ulr,ulr'
p40
(dp41
g3
I3
ssS'#,b,f,f,f'
p42
(dp43
g9
I43
sg11
I17
ssS'-,.,,v,'
p44
(dp45
g3
I1
sg6
I17
ssS'.,.,f,f,f'
p46
(dp47
g3
I10
sg9
I24
sg6
I9
sg11
I1495
ssS'-,-,ur,ur,ur'
p48
(dp49
g3
I1
ssS'v,.,f,f,f'
p50
(dp51
g6
I2
sg11
I20
ssS'-,.,r,r,r'
p52
(dp53
g3
I1
sg6
I226
ssS'B,b,,v,'
p54
(dp55
g10
I5
sg9
I3
ssS'B,B,,,'
p56
(dp57
g6
I1
sg10
I113
sg9
I50
sg11
I15
ssS'B,B,v,,'
p58
(dp59
g10
I5
sg9
I1
sg11
I1
ssS'.,B,r,v,r'
p60
(dp61
g11
I2
ssS'.,B,ul,ul,ul'
p62
(dp63
g3
I3
ssS'B,.,,,'
p64
(dp65
g6
I5
sg3
I2
sg10
I515
sg9
I159
sg11
I121
ssS'.,b,ul,ul,ul'
p66
(dp67
g3
I32
sg11
I2
ssS'v,#,ur,ur,ur'
p68
(dp69
g3
I6
ssS'b,.,l,l,l'
p70
(dp71
g9
I15
sg6
I1
ssS'.,B,,,'
p72
(dp73
g3
I5
sg10
I158
sg9
I37
sg11
I212
ssS'.,.,fl,fl,fl'
p74
(dp75
g6
I1
sg11
I3
ssS'.,B,ur,ur,ur'
p76
(dp77
g3
I4
ssS'b,#,v,u,u'
p78
(dp79
g3
I82
ssS'.,#,ucl,ucl,ucl'
p80
(dp81
g3
I8
ssS'#,b,ur,ur,ur'
p82
(dp83
g3
I1
ssS'b,#,v,c,c'
p84
(dp85
g11
I1
ssS'v,#,cr,cr,cr'
p86
(dp87
g11
I1
ssS'.,v,ur,ur,ur'
p88
(dp89
g3
I5
ssS'v,.,,,'
p90
(dp91
g3
I7
sg9
I65
sg6
I4
sg10
I6
sg11
I366
ssS'.,b,f,v,f'
p92
(dp93
g11
I1
ssS'B,.,fr,fr,fr'
p94
(dp95
g6
I1
ssS'v,v,u,u,u'
p96
(dp97
g3
I4
ssS'.,-,v,,'
p98
(dp99
g6
I10
sg11
I3
ssS'.,.,fr,fr,fr'
p100
(dp101
g6
I4
sg11
I16
ssS'#,#,cr,cr,cr'
p102
(dp103
g3
I3
sg9
I1
sg11
I2
ssS'.,#,lr,v,lr'
p104
(dp105
g11
I2
ssS'b,b,v,,'
p106
(dp107
g10
I1
sg9
I98
sg11
I2
ssS'-,#,lr,lr,lr'
p108
(dp109
g3
I2
sg6
I2
sg11
I7
ssS'-,#,v,l,l'
p110
(dp111
g3
I1
sg6
I1
ssS'-,#,ur,ur,ur'
p112
(dp113
g3
I6
ssS'-,#,v,cl,cl'
p114
(dp115
g6
I1
ssS'b,b,lr,lr,lr'
p116
(dp117
g3
I2
sg9
I11
sg11
I4
ssS'.,b,v,fl,fl'
p118
(dp119
g11
I1
ssS'-,#,v,uc,uc'
p120
(dp121
g3
I1
ssS'-,.,u,u,u'
p122
(dp123
g3
I5
sg6
I1
ssS'#,-,u,u,u'
p124
(dp125
g3
I2
ssS'-,-,,,'
p126
(dp127
g3
I1
sg9
I1
sg6
I7
sg11
I45
ssS'.,#,ulr,ulr,ulr'
p128
(dp129
g3
I5
ssS'#,b,fr,fr,fr'
p130
(dp131
g11
I4
ssS'.,#,v,,'
p132
(dp133
g3
I37
sg9
I1
sg10
I1
sg11
I7
ssS'b,-,f,f,f'
p134
(dp135
g9
I11
sg11
I7
ssS'B,.,v,,'
p136
(dp137
g3
I1
sg10
I5
sg11
I3
ssS'.,#,v,ucl,ucl'
p138
(dp139
g3
I7
ssS'b,b,v,v,'
p140
(dp141
g9
I5
ssS'#,b,r,r,r'
p142
(dp143
g3
I2
sg9
I3
sg11
I57
ssS'-,.,r,v,r'
p144
(dp145
g6
I16
ssS'b,v,ur,ur,ur'
p146
(dp147
g3
I2
ssS'-,B,l,v,l'
p148
(dp149
g6
I2
sg11
I1
ssS'.,.,ur,ur,ur'
p150
(dp151
g11
I1
ssS'b,v,r,r,r'
p152
(dp153
g9
I1
sg11
I3
ssS'.,b,l,v,l'
p154
(dp155
g11
I23
ssS'-,#,ulr,ulr,ulr'
p156
(dp157
g3
I1
ssS'-,.,lr,lr,lr'
p158
(dp159
g6
I72
ssS'-,-,,v,'
p160
(dp161
g11
I4
ssS'-,.,flr,v,flr'
p162
(dp163
g6
I1
ssS'b,.,fl,fl,fl'
p164
(dp165
g9
I2
ssS'#,#,r,r,r'
p166
(dp167
g3
I16
sg9
I1
sg11
I11
ssS'-,B,l,l,l'
p168
(dp169
g6
I1
sg11
I1
ssS'.,#,l,v,l'
p170
(dp171
g11
I3
ssS'b,b,fr,fr,fr'
p172
(dp173
g9
I21
sg11
I16
ssS'b,.,c,c,c'
p174
(dp175
g9
I1
ssS'B,-,,,'
p176
(dp177
g10
I16
sg9
I6
sg11
I7
ssS'b,#,clr,clr,clr'
p178
(dp179
g3
I1
ssS'.,B,r,r,r'
p180
(dp181
g3
I3
sg6
I1
sg11
I197
ssS'.,.,uc,uc,uc'
p182
(dp183
g11
I3
ssS'b,b,r,r,r'
p184
(dp185
g3
I2
sg9
I42
sg6
I3
sg11
I92
ssS'b,b,ucl,ucl,ucl'
p186
(dp187
g9
I1
ssS'b,#,ul,ul,ul'
p188
(dp189
g3
I7
ssS'.,#,v,v,'
p190
(dp191
g3
I1
sg11
I1
ssS'b,#,uc,uc,uc'
p192
(dp193
g3
I42
ssS'b,b,uc,uc,uc'
p194
(dp195
g9
I1
ssS'.,-,v,v,'
p196
(dp197
g11
I2
ssS'b,#,ucr,ucr,ucr'
p198
(dp199
g3
I2
ssS'b,.,lr,lr,lr'
p200
(dp201
g9
I12
sg11
I1
ssS'.,b,fr,v,fr'
p202
(dp203
g11
I1
ssS'.,v,r,r,r'
p204
(dp205
g6
I1
sg11
I67
ssS'-,.,l,l,l'
p206
(dp207
g3
I1
sg6
I173
ssS'-,B,r,r,r'
p208
(dp209
g6
I2
sg11
I1
ssS'b,B,u,u,u'
p210
(dp211
g3
I2
ssS'#,b,l,l,l'
p212
(dp213
g3
I1
sg9
I2
sg6
I1
sg11
I107
ssS'.,#,r,r,r'
p214
(dp215
g3
I20
sg6
I3
sg11
I104
ssS'#,.,,,'
p216
(dp217
g10
I47
sg9
I286
sg6
I34
sg3
I130
sg11
I1366
ssS'#,b,v,,'
p218
(dp219
g10
I3
sg9
I70
sg3
I1
sg11
I2
ssS'.,b,v,,'
p220
(dp221
g3
I8
sg9
I39
sg10
I3
sg11
I33
ssS'-,.,v,v,f'
p222
(dp223
g6
I1
ssS'b,#,lr,lr,lr'
p224
(dp225
g3
I2
ssS'#,.,v,u,u'
p226
(dp227
g3
I1
ssS'.,b,r,v,r'
p228
(dp229
g11
I25
ssS'#,v,lr,lr,lr'
p230
(dp231
g11
I9
ssS'.,#,u,u,u'
p232
(dp233
g3
I718
ssS'b,B,,,'
p234
(dp235
g10
I95
sg9
I118
sg3
I2
sg11
I13
ssS'.,#,l,l,l'
p236
(dp237
g3
I28
sg6
I2
sg11
I113
ssS'v,b,lr,lr,lr'
p238
(dp239
g11
I2
ssS'.,b,v,ul,ul'
p240
(dp241
g3
I5
ssS'.,b,cl,cl,cl'
p242
(dp243
g11
I1
ssS'B,#,u,u,u'
p244
(dp245
g3
I81
ssS'b,B,r,r,r'
p246
(dp247
g3
I1
sg9
I2
sg11
I4
ssS'-,.,flr,flr,flr'
p248
(dp249
g6
I5
ssS'.,-,,,'
p250
(dp251
g3
I7
sg10
I3
sg6
I12
sg9
I5
sg11
I680
ssS'#,.,lr,v,lr'
p252
(dp253
g6
I1
ssS'.,v,v,,'
p254
(dp255
g3
I2
sg10
I1
sg9
I1
sg11
I6
ssS'.,#,v,l,l'
p256
(dp257
g3
I3
sg11
I25
ssS'-,B,,,'
p258
(dp259
g9
I1
sg10
I4
sg6
I29
sg11
I2
ssS'b,-,,v,'
p260
(dp261
g10
I4
sg9
I15
ssS'#,b,,,'
p262
(dp263
g10
I23
sg9
I559
sg3
I33
sg11
I90
ssS'-,#,v,v,l'
p264
(dp265
g3
I1
ssS'B,v,r,r,r'
p266
(dp267
g11
I1
ssS'-,.,v,f,f'
p268
(dp269
g6
I2
ssS'.,b,uclr,uclr,uclr'
p270
(dp271
g11
I2
ssS'.,.,v,u,u'
p272
(dp273
g3
I2
ssS'.,b,ur,ur,ur'
p274
(dp275
g3
I21
sg11
I2
ssS'.,-,f,v,f'
p276
(dp277
g11
I1
ssS'.,b,fl,v,fl'
p278
(dp279
g11
I1
ssS'#,#,ul,ul,ul'
p280
(dp281
g3
I7
ssS'b,#,v,ul,ul'
p282
(dp283
g3
I9
ssS'#,.,v,,'
p284
(dp285
g10
I1
sg9
I4
sg11
I30
ssS'b,#,cl,cl,cl'
p286
(dp287
g9
I3
ssS'.,v,u,u,u'
p288
(dp289
g3
I11
ssS'b,#,v,uc,uc'
p290
(dp291
g3
I17
ssS'.,-,u,u,u'
p292
(dp293
g3
I7
sg11
I1
ssS'v,B,,v,'
p294
(dp295
g10
I1
ssS'-,.,l,v,l'
p296
(dp297
g6
I18
ssS'.,b,v,lr,lr'
p298
(dp299
g11
I1
ssS'v,B,ur,ur,ur'
p300
(dp301
g3
I1
ssS'b,B,,v,'
p302
(dp303
g10
I2
sg9
I7
ssS'.,.,v,v,'
p304
(dp305
g11
I46
ssS'#,B,r,r,r'
p306
(dp307
g11
I7
ssS'-,#,l,l,l'
p308
(dp309
g3
I6
sg6
I13
sg11
I3
ssS'.,-,f,f,f'
p310
(dp311
g6
I1
sg11
I107
ssS'b,.,,,'
p312
(dp313
g6
I8
sg3
I23
sg10
I173
sg9
I2922
sg11
I705
ssS'v,v,,,'
p314
(dp315
g10
I2
sg9
I53
sg3
I3
sg11
I6
ssS'.,#,ucr,ucr,ucr'
p316
(dp317
g3
I1
ssS'b,-,v,,'
p318
(dp319
g9
I1
sg11
I1
ssS'.,B,u,u,u'
p320
(dp321
g3
I13
ssS'.,#,,,'
p322
(dp323
g3
I479
sg9
I7
sg6
I1
sg10
I1
sg11
I181
ssS'B,B,u,u,u'
p324
(dp325
g3
I6
ssS'#,b,v,l,l'
p326
(dp327
g11
I1
ssS'.,#,r,v,r'
p328
(dp329
g3
I1
sg11
I2
ssS'.,#,clr,clr,clr'
p330
(dp331
g11
I4
ssS'B,b,v,,'
p332
(dp333
g3
I1
sg10
I2
sg9
I4
ssS'#,-,,v,'
p334
(dp335
g11
I1
ssS'.,.,uf,uf,uf'
p336
(dp337
g3
I3
ssS'v,#,u,u,u'
p338
(dp339
g3
I277
ssS'-,.,v,,'
p340
(dp341
g11
I1
ssS'-,b,lr,lr,lr'
p342
(dp343
g6
I5
sg11
I6
ssS'#,#,c,c,c'
p344
(dp345
g3
I22
sg9
I1
sg11
I7
ssS'#,.,ul,ul,ul'
p346
(dp347
g3
I2
ssS'v,#,c,c,c'
p348
(dp349
g3
I5
sg11
I1
ssS'.,B,lr,lr,lr'
p350
(dp351
g3
I4
sg11
I140
ssS'#,.,fr,fr,fr'
p352
(dp353
g3
I1
sg11
I1
ssS'.,v,ul,ul,ul'
p354
(dp355
g3
I4
ssS'b,b,ur,ur,ur'
p356
(dp357
g3
I7
ssS'b,b,ulr,ulr,ulr'
p358
(dp359
g9
I1
ssS'.,v,l,l,l'
p360
(dp361
g3
I2
sg9
I1
sg11
I59
ssS'#,-,,,'
p362
(dp363
g10
I2
sg9
I14
sg11
I40
ssS'.,.,l,l,l'
p364
(dp365
g3
I1
sg6
I22
sg11
I21
ssS'.,b,,,'
p366
(dp367
g3
I60
sg9
I810
sg6
I2
sg10
I67
sg11
I1207
ssS'.,.,,v,'
p368
(dp369
g9
I8
sg6
I4
sg11
I1354
ssS'B,.,r,r,r'
p370
(dp371
g9
I1
ssS'-,.,uf,uf,uf'
p372
(dp373
g3
I2
ssS'.,.,cr,cr,cr'
p374
(dp375
g11
I1
ssS'-,.,lr,v,lr'
p376
(dp377
g6
I2
ssS'.,#,v,v,l'
p378
(dp379
g11
I2
ssS'v,.,u,u,u'
p380
(dp381
g3
I1
ssS'-,#,r,r,r'
p382
(dp383
g3
I6
sg6
I7
sg11
I3
ssS'-,-,lr,lr,lr'
p384
(dp385
g6
I2
ssS'v,.,r,r,r'
p386
(dp387
g9
I1
sg6
I1
ssS'.,b,v,u,u'
p388
(dp389
g3
I19
ssS'-,B,ul,ul,ul'
p390
(dp391
g3
I1
ssS'.,v,v,l,l'
p392
(dp393
g11
I1
ssS'.,b,lr,lr,lr'
p394
(dp395
g3
I7
sg9
I12
sg6
I1
sg11
I830
ssS'#,.,l,l,l'
p396
(dp397
g3
I4
sg9
I1
sg6
I25
sg11
I2
ssS'b,B,v,,'
p398
(dp399
g10
I4
sg9
I3
ssS'B,#,r,r,r'
p400
(dp401
g3
I3
sg6
I1
sg11
I10
ssS'.,#,lr,lr,lr'
p402
(dp403
g3
I5
sg11
I70
ssS'-,#,u,u,u'
p404
(dp405
g3
I26
ssS'.,b,fr,fr,fr'
p406
(dp407
g9
I6
sg11
I51
ssS'v,b,,v,'
p408
(dp409
g10
I2
sg9
I8
sg11
I1
ssS'b,v,,,'
p410
(dp411
g10
I46
sg9
I1339
sg3
I7
sg11
I8
ssS'b,B,lr,lr,lr'
p412
(dp413
g9
I1
ssS'v,b,ur,ur,ur'
p414
(dp415
g3
I2
ssS'-,b,f,f,f'
p416
(dp417
g11
I3
ssS'b,b,c,c,c'
p418
(dp419
g9
I1
ssS'-,b,fl,v,fl'
p420
(dp421
g11
I1
ssS'B,.,f,f,f'
p422
(dp423
g9
I21
sg11
I48
ssS'v,-,,,'
p424
(dp425
g3
I1
sg9
I1
sg11
I4
ssS'#,v,,,'
p426
(dp427
g10
I2
sg9
I14
sg3
I32
sg11
I5
ssS'b,#,cr,cr,cr'
p428
(dp429
g3
I1
sg6
I1
sg11
I4
ssS'#,B,l,l,l'
p430
(dp431
g3
I1
sg9
I1
sg6
I1
sg11
I19
ssS'b,b,,,'
p432
(dp433
g3
I33
sg9
I2303
sg6
I1
sg10
I70
sg11
I122
ssS'.,-,fl,fl,fl'
p434
(dp435
g6
I1
ssS'#,B,,,'
p436
(dp437
g10
I87
sg9
I24
sg6
I1
sg3
I6
sg11
I16
ssS'B,-,f,f,f'
p438
(dp439
g11
I2
ssS'B,#,ur,ur,ur'
p440
(dp441
g3
I2
ssS'#,#,v,c,c'
p442
(dp443
g11
I1
ssS'#,B,lr,lr,lr'
p444
(dp445
g11
I12
ssS'v,.,,v,'
p446
(dp447
g9
I1
sg11
I45
ssS'#,B,v,l,l'
p448
(dp449
g11
I1
ssS'b,b,flr,flr,flr'
p450
(dp451
g9
I9
sg11
I4
ssS'.,.,ucfl,ucfl,ucfl'
p452
(dp453
g11
I1
ssS'-,.,ur,ur,ur'
p454
(dp455
g3
I2
ssS'.,-,r,r,r'
p456
(dp457
g3
I1
sg6
I2
ssS'-,b,,v,'
p458
(dp459
g6
I1
sg11
I1
ssS'-,b,,,'
p460
(dp461
g10
I1
sg9
I15
sg6
I21
sg11
I5
ssS'.,#,,v,'
p462
(dp463
g3
I5
sg11
I7
ssS'B,#,v,uc,uc'
p464
(dp465
g3
I11
ssS'.,.,v,,'
p466
(dp467
g10
I1
sg9
I2
sg6
I1
sg11
I366
ssS'b,#,c,c,c'
p468
(dp469
g3
I32
sg9
I2
ssS'#,#,l,l,l'
p470
(dp471
g3
I30
sg6
I1
sg11
I48
ssS'.,-,fr,fr,fr'
p472
(dp473
g11
I1
ssS'b,.,uf,uf,uf'
p474
(dp475
g3
I1
sg9
I1
ssS'b,#,v,,'
p476
(dp477
g3
I22
sg9
I4
sg11
I1
ssS'-,.,v,u,u'
p478
(dp479
g3
I1
ssS'-,.,v,l,l'
p480
(dp481
g6
I1
ssS'.,#,v,c,c'
p482
(dp483
g11
I1
ssS'B,#,v,c,c'
p484
(dp485
g3
I9
ssS'b,.,fr,fr,fr'
p486
(dp487
g9
I2
sg6
I1
ssS'v,b,,,'
p488
(dp489
g3
I9
sg10
I13
sg9
I249
sg11
I60
ssS'.,b,r,r,r'
p490
(dp491
g3
I23
sg9
I9
sg6
I1
sg11
I1033
ssS'v,b,u,u,u'
p492
(dp493
g3
I21
ssS'B,#,cr,cr,cr'
p494
(dp495
g11
I1
ssS'.,#,ul,ul,ul'
p496
(dp497
g3
I41
sg11
I1
ssS'.,b,ulr,ulr,ulr'
p498
(dp499
g3
I12
sg11
I1
ssS'v,B,,,'
p500
(dp501
g10
I10
sg9
I10
sg11
I5
ssS'b,.,v,v,'
p502
(dp503
g11
I1
ssS'B,#,,,'
p504
(dp505
g3
I29
sg9
I3
sg10
I4
ssS'#,v,l,l,l'
p506
(dp507
g11
I11
ssS'#,b,lr,lr,lr'
p508
(dp509
g9
I6
sg11
I80
ssS'B,b,f,f,f'
p510
(dp511
g9
I3
sg11
I2
ssS'.,B,v,v,'
p512
(dp513
g10
I1
ssS'-,b,v,,'
p514
(dp515
g9
I2
sg6
I1
ssS'v,-,f,f,f'
p516
(dp517
g11
I2
ssS'.,v,lr,lr,lr'
p518
(dp519
g11
I73
ssS'b,.,,v,'
p520
(dp521
g10
I13
sg9
I91
sg11
I14
ssS'#,v,v,,'
p522
(dp523
g3
I1
sg9
I1
ssS'B,b,,,'
p524
(dp525
g3
I2
sg10
I64
sg9
I107
sg11
I17
ssS'.,#,cl,cl,cl'
p526
(dp527
g3
I3
sg9
I1
sg11
I10
ssS'-,.,,,'
p528
(dp529
g3
I3
sg9
I12
sg6
I281
sg11
I92
ssS'#,#,lr,lr,lr'
p530
(dp531
g9
I1
sg6
I2
sg11
I9
ssS'B,v,u,u,u'
p532
(dp533
g3
I1
ssS'.,b,f,f,f'
p534
(dp535
g9
I2
sg11
I83
ssS'.,-,l,l,l'
p536
(dp537
g6
I4
ssS'-,-,v,u,u'
p538
(dp539
g3
I1
ssS'.,#,ur,ur,ur'
p540
(dp541
g3
I35
ssS'.,#,c,c,c'
p542
(dp543
g3
I42
sg11
I21
ssS'#,#,u,u,u'
p544
(dp545
g3
I40
ssS'B,.,v,v,'
p546
(dp547
g11
I1
ssS'.,B,l,l,l'
p548
(dp549
g3
I2
sg9
I4
sg11
I179
ssS'b,.,r,r,r'
p550
(dp551
g9
I17
sg6
I5
sg11
I2
ssS'B,B,r,r,r'
p552
(dp553
g11
I5
ssS'.,#,v,uc,uc'
p554
(dp555
g3
I5
ssS'-,.,cr,cr,cr'
p556
(dp557
g6
I1
ssS'B,.,,v,'
p558
(dp559
g10
I16
sg9
I13
sg11
I4
ssS'-,#,,,'
p560
(dp561
g3
I11
sg6
I5
ssS'.,.,flr,v,flr'
p562
(dp563
g6
I1
ssS'.,.,c,c,c'
p564
(dp565
g3
I1
ssS'#,#,ucr,ucr,ucr'
p566
(dp567
g3
I2
ssS'.,B,,v,'
p568
(dp569
g10
I2
sg9
I1
sg11
I10
ssS'.,#,f,f,f'
p570
(dp571
g11
I1
ssS'.,b,ucl,ucl,ucl'
p572
(dp573
g11
I2
ssS'b,.,v,,'
p574
(dp575
g3
I1
sg9
I40
sg11
I42
ssS'.,.,lr,lr,lr'
p576
(dp577
g9
I1
sg6
I12
sg11
I10
ssS'-,.,fr,fr,fr'
p578
(dp579
g6
I26
ssS'#,.,lr,lr,lr'
p580
(dp581
g3
I1
sg9
I1
sg6
I5
sg11
I1
ssS'.,#,v,ul,ul'
p582
(dp583
g3
I10
ssS'v,b,r,r,r'
p584
(dp585
g11
I15
ssS'#,#,ur,ur,ur'
p586
(dp587
g3
I5
ssS'B,.,u,u,u'
p588
(dp589
g3
I1
ssS'.,b,lr,v,lr'
p590
(dp591
g11
I7
ssS'#,.,fl,fl,fl'
p592
(dp593
g3
I1
sg6
I2
ssS'B,b,u,u,u'
p594
(dp595
g3
I4
ssS'.,.,cl,cl,cl'
p596
(dp597
g11
I2
ssS'B,.,v,f,f'
p598
(dp599
g11
I1
ssS'-,b,l,l,l'
p600
(dp601
g3
I1
sg6
I11
sg11
I11
ssS'B,#,c,c,c'
p602
(dp603
g3
I1
sg9
I1
sg11
I1
ssS'b,-,,,'
p604
(dp605
g10
I7
sg9
I120
sg3
I3
sg11
I11
ssS'#,.,,v,'
p606
(dp607
g6
I1
sg11
I4
ssS'#,#,,v,'
p608
(dp609
g3
I1
sg9
I1
ssS'#,#,v,,'
p610
(dp611
g3
I10
sg9
I2
ssS'.,.,ulr,ulr,ulr'
p612
(dp613
g11
I1
ssS'.,B,v,,'
p614
(dp615
g3
I2
sg10
I10
sg9
I2
sg11
I3
ssS'b,v,lr,lr,lr'
p616
(dp617
g9
I14
ssS'.,#,cr,cr,cr'
p618
(dp619
g3
I1
sg6
I1
sg11
I16
ssS'b,b,f,f,f'
p620
(dp621
g9
I48
sg11
I20
ssS'v,#,ucr,ucr,ucr'
p622
(dp623
g3
I1
ssS'B,b,fr,fr,fr'
p624
(dp625
g11
I7
ssS'v,#,,,'
p626
(dp627
g3
I127
sg9
I2
sg6
I2
sg11
I6
ssS'b,v,u,u,u'
p628
(dp629
g3
I3
sg9
I1
ssS'b,#,r,r,r'
p630
(dp631
g3
I25
sg9
I1
sg6
I1
sg11
I8
ssS'B,-,,v,'
p632
(dp633
g10
I8
sg9
I4
ssS'#,-,f,f,f'
p634
(dp635
g11
I16
ssS'B,b,r,r,r'
p636
(dp637
g11
I10
ssS'.,.,v,f,f'
p638
(dp639
g3
I1
sg11
I12
ssS'-,-,fl,fl,fl'
p640
(dp641
g6
I1
ssS'-,#,v,,'
p642
(dp643
g6
I1
sg11
I1
ssS'b,b,l,l,l'
p644
(dp645
g3
I1
sg9
I35
sg11
I9
ssS'b,#,u,u,u'
p646
(dp647
g3
I463
ssS'.,.,ucf,ucf,ucf'
p648
(dp649
g11
I3
ssS'#,b,ul,ul,ul'
p650
(dp651
g3
I2
ssS'B,B,,v,'
p652
(dp653
g10
I1
sg9
I3
sg11
I1
ssS'.,b,uc,uc,uc'
p654
(dp655
g9
I2
ssS'b,#,r,v,r'
p656
(dp657
g3
I1
sg11
I1
ssS'.,.,l,v,l'
p658
(dp659
g6
I1
ssS'.,b,,v,'
p660
(dp661
g10
I2
sg9
I5
sg11
I73
ssS'#,.,v,f,f'
p662
(dp663
g11
I1
ssS'#,b,flr,flr,flr'
p664
(dp665
g11
I5
ssS'.,B,ulr,ulr,ulr'
p666
(dp667
g3
I2
ssS'B,v,,,'
p668
(dp669
g10
I107
sg9
I44
sg3
I1
sg11
I1
ssS'-,.,fl,v,fl'
p670
(dp671
g6
I2
ssS'b,.,uc,uc,uc'
p672
(dp673
g9
I1
ssS'v,-,,v,'
p674
(dp675
g11
I2
ssS'-,-,f,f,f'
p676
(dp677
g6
I1
sg11
I28
ssS'B,b,ur,ur,ur'
p678
(dp679
g3
I2
ssS'.,b,fl,fl,fl'
p680
(dp681
g9
I3
sg11
I68
ssS'b,#,,,'
p682
(dp683
g3
I322
sg9
I54
sg10
I2
sg11
I17
ssS'b,#,,v,'
p684
(dp685
g9
I26
ssS'-,#,uc,uc,uc'
p686
(dp687
g3
I5
ssS'.,.,f,v,f'
p688
(dp689
g11
I4
ssS'-,b,fl,fl,fl'
p690
(dp691
g11
I3
ssS'.,B,l,v,l'
p692
(dp693
g11
I2
ssS'-,#,c,c,c'
p694
(dp695
g3
I1
sg6
I2
ssS'.,#,cr,v,cr'
p696
(dp697
g3
I1
ssS'.,b,u,u,u'
p698
(dp699
g3
I81
sg11
I2
ssS'#,.,r,r,r'
p700
(dp701
g3
I3
sg9
I3
sg6
I19
sg11
I2
ssS'-,v,u,u,u'
p702
(dp703
g3
I1
ssS'.,.,u,u,u'
p704
(dp705
g3
I29
sg11
I6
ssS'B,#,v,u,u'
p706
(dp707
g3
I8
ssS'-,-,f,v,f'
p708
(dp709
g11
I1
ssS'#,.,f,f,f'
p710
(dp711
g3
I11
sg9
I24
sg6
I1
sg11
I264
ssS'.,b,v,f,f'
p712
(dp713
g11
I2
ssS'b,b,,v,'
p714
(dp715
g10
I4
sg9
I51
sg11
I2
ssS'B,#,uc,uc,uc'
p716
(dp717
g3
I10
ssS'v,B,u,u,u'
p718
(dp719
g3
I4
ssS'b,.,u,u,u'
p720
(dp721
g3
I3
sg9
I2
ssS'b,.,cr,cr,cr'
p722
(dp723
g3
I1
ssS'#,.,r,v,r'
p724
(dp725
g3
I1
sg6
I2
ssS'-,.,fl,fl,fl'
p726
(dp727
g6
I14
ssS'B,#,ucr,ucr,ucr'
p728
(dp729
g3
I1
ssS'b,v,v,,'
p730
(dp731
g3
I2
sg9
I45
ssS'B,#,v,,'
p732
(dp733
g10
I1
ssS'v,#,,v,'
p734
(dp735
g3
I1
sg10
I1
sg6
I1
sg11
I3
ssS'.,#,v,cl,cl'
p736
(dp737
g11
I3
ssS'v,#,r,r,r'
p738
(dp739
g3
I6
sg9
I1
sg6
I1
sg11
I31
ssS'#,#,v,l,l'
p740
(dp741
g3
I1
sg11
I1
ssS'b,v,ul,ul,ul'
p742
(dp743
g9
I1
ssS'.,.,r,v,r'
p744
(dp745
g6
I2
ssS'-,b,l,v,l'
p746
(dp747
g11
I1
ssS'#,b,u,u,u'
p748
(dp749
g3
I5
ssS'-,#,l,v,l'
p750
(dp751
g6
I1
sg11
I1
ssS'b,B,l,l,l'
p752
(dp753
g11
I1
ssS'v,#,uc,uc,uc'
p754
(dp755
g3
I11
ssS'.,.,r,r,r'
p756
(dp757
g3
I1
sg6
I41
sg11
I13
ssS'#,#,cl,cl,cl'
p758
(dp759
g3
I4
sg11
I4
ssS'.,#,v,u,u'
p760
(dp761
g3
I166
ssS'-,#,v,u,u'
p762
(dp763
g3
I6
ssS'-,#,ul,ul,ul'
p764
(dp765
g3
I4
ssS'-,.,f,f,f'
p766
(dp767
g6
I43
sg11
I23
ssS'#,v,r,r,r'
p768
(dp769
g11
I8
ssS'b,#,ur,ur,ur'
p770
(dp771
g3
I17
ssS'-,B,v,u,u'
p772
(dp773
g3
I1
ssS'#,b,fl,fl,fl'
p774
(dp775
g9
I6
sg11
I7
ssS'b,#,ulr,ulr,ulr'
p776
(dp777
g3
I3
ssS'B,-,v,f,f'
p778
(dp779
g3
I1
ssS'b,.,v,f,f'
p780
(dp781
g9
I3
ssS'B,#,,v,'
p782
(dp783
g10
I1
ssS'.,b,flr,flr,flr'
p784
(dp785
g9
I3
sg11
I61
ssS'#,#,,,'
p786
(dp787
g3
I198
sg9
I22
sg10
I2
sg11
I38
ssS'b,b,fr,v,fr'
p788
(dp789
g11
I1
ssS'.,B,v,u,u'
p790
(dp791
g3
I4
ssS'v,#,r,v,r'
p792
(dp793
g3
I1
sg11
I1
ssS'-,#,cr,cr,cr'
p794
(dp795
g6
I1
ssS'-,b,r,v,r'
p796
(dp797
g11
I1
ssS'#,#,uc,uc,uc'
p798
(dp799
g3
I4
ssS'.,.,ucr,ucr,ucr'
p800
(dp801
g11
I1
ssS'b,b,fl,fl,fl'
p802
(dp803
g9
I12
sg11
I1
ssS'.,#,uf,uf,uf'
p804
(dp805
g11
I1
ssS'#,.,u,u,u'
p806
(dp807
g3
I15
ssS'.,v,v,u,u'
p808
(dp809
g3
I3
ssS'#,B,v,,'
p810
(dp811
g10
I4
sg9
I3
ssS'B,B,ur,ur,ur'
p812
(dp813
g3
I1
ssS'b,.,f,f,f'
p814
(dp815
g3
I2
sg9
I221
sg6
I2
sg11
I205
ssS'B,v,v,,'
p816
(dp817
g10
I4
sg9
I1
ssS'#,.,fr,v,fr'
p818
(dp819
g6
I1
ssS'-,b,r,r,r'
p820
(dp821
g6
I6
sg11
I6
ssS'b,.,ul,ul,ul'
p822
(dp823
g3
I2
sg9
I2
ssS'B,B,v,v,'
p824
(dp825
g10
I1
ssS'b,b,u,u,u'
p826
(dp827
g3
I54
sg9
I5
ss.